; Function Attrs: nounwind uwtable
define void @PHP_SHA384Final(ptr nocapture noundef writeonly %0, ptr noundef %1) #2 {
  %3 = alloca [16 x i8], align 16
  %4 = getelementptr inbounds i8, ptr %1, i64 64
  %5 = load i64, ptr %4, align 8
  %6 = trunc i64 %5 to i8
  %7 = getelementptr inbounds i8, ptr %3, i64 15
  store i8 %6, ptr %7, align 1
  %8 = lshr i64 %5, 8
  %9 = trunc i64 %8 to i8
  %10 = getelementptr inbounds i8, ptr %3, i64 14
  store i8 %9, ptr %10, align 2
  %11 = lshr i64 %5, 16
  %12 = trunc i64 %11 to i8
  %13 = getelementptr inbounds i8, ptr %3, i64 13
  store i8 %12, ptr %13, align 1
  %14 = lshr i64 %5, 24
  %15 = trunc i64 %14 to i8
  %16 = getelementptr inbounds i8, ptr %3, i64 12
  store i8 %15, ptr %16, align 4
  %17 = lshr i64 %5, 32
  %18 = trunc i64 %17 to i8
  %19 = getelementptr inbounds i8, ptr %3, i64 11
  store i8 %18, ptr %19, align 1
  %20 = lshr i64 %5, 40
  %21 = trunc i64 %20 to i8
  %22 = getelementptr inbounds i8, ptr %3, i64 10
  store i8 %21, ptr %22, align 2
  %23 = lshr i64 %5, 48
  %24 = trunc i64 %23 to i8
  %25 = getelementptr inbounds i8, ptr %3, i64 9
  store i8 %24, ptr %25, align 1
  %26 = lshr i64 %5, 56
  %27 = trunc i64 %26 to i8
  %28 = getelementptr inbounds i8, ptr %3, i64 8
  store i8 %27, ptr %28, align 8
  %29 = getelementptr inbounds i8, ptr %1, i64 72
  %30 = load i64, ptr %29, align 8
  %31 = trunc i64 %30 to i8
  %32 = getelementptr inbounds i8, ptr %3, i64 7
  store i8 %31, ptr %32, align 1
  %33 = lshr i64 %30, 8
  %34 = trunc i64 %33 to i8
  %35 = getelementptr inbounds i8, ptr %3, i64 6
  store i8 %34, ptr %35, align 2
  %36 = lshr i64 %30, 16
  %37 = trunc i64 %36 to i8
  %38 = getelementptr inbounds i8, ptr %3, i64 5
  store i8 %37, ptr %38, align 1
  %39 = lshr i64 %30, 24
  %40 = trunc i64 %39 to i8
  %41 = getelementptr inbounds i8, ptr %3, i64 4
  store i8 %40, ptr %41, align 4
  %42 = lshr i64 %30, 32
  %43 = trunc i64 %42 to i8
  %44 = getelementptr inbounds i8, ptr %3, i64 3
  store i8 %43, ptr %44, align 1
  %45 = lshr i64 %30, 40
  %46 = trunc i64 %45 to i8
  %47 = getelementptr inbounds i8, ptr %3, i64 2
  store i8 %46, ptr %47, align 2
  %48 = lshr i64 %30, 48
  %49 = trunc i64 %48 to i8
  %50 = getelementptr inbounds i8, ptr %3, i64 1
  store i8 %49, ptr %50, align 1
  %51 = lshr i64 %30, 56
  %52 = trunc i64 %51 to i8
  store i8 %52, ptr %3, align 16
  %53 = trunc i64 %5 to i32
  %54 = lshr i32 %53, 3
  %55 = and i32 %54, 127
  %56 = icmp ult i32 %55, 112
  %.v = select i1 %56, i32 112, i32 240
  %57 = sub nsw i32 %.v, %55
  %58 = zext i32 %57 to i64
  %59 = shl nuw nsw i64 %58, 3
  %60 = add i64 %59, %5
  store i64 %60, ptr %4, align 8
  %61 = icmp ult i64 %60, %59
  %62 = zext i1 %61 to i64
  %63 = add i64 %30, %62
  store i64 %63, ptr %29, align 8
  %64 = sub nuw nsw i32 128, %55
  %.not.i = icmp ugt i32 %64, %57
  br i1 %.not.i, label %PHP_SHA384Update.exit, label %65

65:                                               ; preds = %2
  %66 = zext nneg i32 %64 to i64
  %67 = getelementptr inbounds i8, ptr %1, i64 80
  %68 = zext nneg i32 %55 to i64
  %69 = getelementptr inbounds [128 x i8], ptr %67, i64 0, i64 %68
  tail call void @llvm.memcpy.p0.p0.i64(ptr noundef nonnull align 1 dereferenceable(1) %69, ptr noundef nonnull align 16 dereferenceable(1) @PADDING, i64 %66, i1 false)
  tail call fastcc void @SHA512Transform(ptr noundef nonnull %1, ptr noundef nonnull %67)
  %70 = add nuw nsw i64 %66, 127
  %71 = icmp ult i64 %70, %58
  br i1 %71, label %.lr.ph.i, label %PHP_SHA384Update.exit

.lr.ph.i:                                         ; preds = %65, %.lr.ph.i
  %.031.i = phi i64 [ %73, %.lr.ph.i ], [ %66, %65 ]
  %72 = getelementptr inbounds i8, ptr @PADDING, i64 %.031.i
  tail call fastcc void @SHA512Transform(ptr noundef %1, ptr noundef nonnull %72)
  %73 = add nuw nsw i64 %.031.i, 128
  %74 = add nuw nsw i64 %.031.i, 255
  %75 = icmp ult i64 %74, %58
  br i1 %75, label %.lr.ph.i, label %PHP_SHA384Update.exit

PHP_SHA384Update.exit:                            ; preds = %.lr.ph.i, %2, %65
  %.028.i = phi i32 [ %55, %2 ], [ 0, %65 ], [ 0, %.lr.ph.i ]
  %.1.i = phi i64 [ 0, %2 ], [ %66, %65 ], [ %73, %.lr.ph.i ]
  %76 = getelementptr inbounds i8, ptr %1, i64 80
  %77 = zext nneg i32 %.028.i to i64
  %78 = getelementptr inbounds [128 x i8], ptr %76, i64 0, i64 %77
  %79 = getelementptr inbounds i8, ptr @PADDING, i64 %.1.i
  %80 = sub i64 %58, %.1.i
  tail call void @llvm.memcpy.p0.p0.i64(ptr nonnull align 1 %78, ptr nonnull align 1 %79, i64 %80, i1 false)
  %81 = load i64, ptr %4, align 8
  %82 = trunc i64 %81 to i32
  %83 = lshr i32 %82, 3
  %84 = and i32 %83, 127
  %85 = add i64 %81, 128
  store i64 %85, ptr %4, align 8
  %86 = icmp ugt i64 %81, -129
  %87 = load i64, ptr %29, align 8
  %88 = zext i1 %86 to i64
  %89 = add i64 %87, %88
  store i64 %89, ptr %29, align 8
  %.not.i25 = icmp ult i32 %84, 112
  br i1 %.not.i25, label %PHP_SHA384Update.exit28, label %90

90:                                               ; preds = %PHP_SHA384Update.exit
  %91 = sub nuw nsw i32 128, %84
  %92 = zext nneg i32 %91 to i64
  %93 = zext nneg i32 %84 to i64
  %94 = getelementptr inbounds [128 x i8], ptr %76, i64 0, i64 %93
  call void @llvm.memcpy.p0.p0.i64(ptr noundef nonnull align 1 dereferenceable(1) %94, ptr noundef nonnull align 16 dereferenceable(1) %3, i64 %92, i1 false)
  tail call fastcc void @SHA512Transform(ptr noundef nonnull %1, ptr noundef nonnull %76)
  br label %PHP_SHA384Update.exit28

PHP_SHA384Update.exit28:                          ; preds = %PHP_SHA384Update.exit, %90
  %.028.i26 = phi i32 [ %84, %PHP_SHA384Update.exit ], [ 0, %90 ]
  %.1.i27 = phi i64 [ 0, %PHP_SHA384Update.exit ], [ %92, %90 ]
  %95 = zext nneg i32 %.028.i26 to i64
  %96 = getelementptr inbounds [128 x i8], ptr %76, i64 0, i64 %95
  %97 = getelementptr inbounds i8, ptr %3, i64 %.1.i27
  %98 = sub nuw nsw i64 16, %.1.i27
  call void @llvm.memcpy.p0.p0.i64(ptr nonnull align 1 %96, ptr nonnull align 1 %97, i64 %98, i1 false)
  br label %.lr.ph.i29

.lr.ph.i29:                                       ; preds = %.lr.ph.i29, %PHP_SHA384Update.exit28
  %indvars.iv38.i = phi i64 [ 0, %PHP_SHA384Update.exit28 ], [ %indvars.iv.next39.i, %.lr.ph.i29 ]
  %indvars.iv.i = phi i64 [ 0, %PHP_SHA384Update.exit28 ], [ %indvars.iv.next.i, %.lr.ph.i29 ]
  %99 = getelementptr inbounds i64, ptr %1, i64 %indvars.iv38.i
  %100 = load i64, ptr %99, align 8
  %101 = lshr i64 %100, 56
  %102 = trunc i64 %101 to i8
  %103 = getelementptr inbounds i8, ptr %0, i64 %indvars.iv.i
  store i8 %102, ptr %103, align 1
  %104 = load i64, ptr %99, align 8
  %105 = lshr i64 %104, 48
  %106 = trunc i64 %105 to i8
  %107 = or disjoint i64 %indvars.iv.i, 1
  %108 = getelementptr inbounds i8, ptr %0, i64 %107
  store i8 %106, ptr %108, align 1
  %109 = load i64, ptr %99, align 8
  %110 = lshr i64 %109, 40
  %111 = trunc i64 %110 to i8
  %112 = or disjoint i64 %indvars.iv.i, 2
  %113 = getelementptr inbounds i8, ptr %0, i64 %112
  store i8 %111, ptr %113, align 1
  %114 = load i64, ptr %99, align 8
  %115 = lshr i64 %114, 32
  %116 = trunc i64 %115 to i8
  %117 = or disjoint i64 %indvars.iv.i, 3
  %118 = getelementptr inbounds i8, ptr %0, i64 %117
  store i8 %116, ptr %118, align 1
  %119 = load i64, ptr %99, align 8
  %120 = lshr i64 %119, 24
  %121 = trunc i64 %120 to i8
  %122 = or disjoint i64 %indvars.iv.i, 4
  %123 = getelementptr inbounds i8, ptr %0, i64 %122
  store i8 %121, ptr %123, align 1
  %124 = load i64, ptr %99, align 8
  %125 = lshr i64 %124, 16
  %126 = trunc i64 %125 to i8
  %127 = or disjoint i64 %indvars.iv.i, 5
  %128 = getelementptr inbounds i8, ptr %0, i64 %127
  store i8 %126, ptr %128, align 1
  %129 = load i64, ptr %99, align 8
  %130 = lshr i64 %129, 8
  %131 = trunc i64 %130 to i8
  %132 = or disjoint i64 %indvars.iv.i, 6
  %133 = getelementptr inbounds i8, ptr %0, i64 %132
  store i8 %131, ptr %133, align 1
  %134 = load i64, ptr %99, align 8
  %135 = trunc i64 %134 to i8
  %136 = or disjoint i64 %indvars.iv.i, 7
  %137 = getelementptr inbounds i8, ptr %0, i64 %136
  store i8 %135, ptr %137, align 1
  %indvars.iv.next39.i = add nuw nsw i64 %indvars.iv38.i, 1
  %indvars.iv.next.i = add nuw nsw i64 %indvars.iv.i, 8
  %exitcond.not.i = icmp eq i64 %indvars.iv.next39.i, 6
  br i1 %exitcond.not.i, label %SHAEncode64.exit, label %.lr.ph.i29

SHAEncode64.exit:                                 ; preds = %.lr.ph.i29
  tail call void @explicit_bzero(ptr noundef nonnull %1, i64 noundef 208) #7
  ret void
}